target datalayout = "e-m:e-p270:32:32-p271:32:32-p272:64:64-i64:64-i128:128-f80:128-n8:16:32:64-S128"
target triple = "x86_64-pc-linux-gnu"

%struct.crypto_ex_data_st = type { ptr }
%struct.ssl_st = type { i32, i16, i16, ptr, ptr, ptr, ptr, ptr, i32, i32, ptr, ptr, i32, i32, ptr, ptr, ptr, ptr, ptr, ptr, ptr, ptr, i32, i32, [32 x i8], ptr, ptr, ptr, ptr, ptr, ptr, ptr, i64, %struct.crypto_ex_data_st, ptr, i32, i32, i32, i32, i16, ptr, i32, i64, ptr, ptr, ptr, ptr, ptr, ptr, i32, i32, ptr, ptr, i8, i8, i32 }
%struct.ssl_protocol_method_st = type { i8, ptr, ptr, ptr, ptr, ptr, ptr, ptr, ptr, ptr, ptr, ptr, i32, ptr, ptr }
%struct.ssl3_state_st = type { [8 x i8], [8 x i8], [32 x i8], [32 x i8], i8, i8, %struct.ssl3_buffer_st, %struct.ssl3_buffer_st, %struct.ssl3_record_st, i8, i32, i32, i32, i32, ptr, ptr, %struct.env_md_ctx_st, %struct.env_md_ctx_st, i8, i32, [2 x i8], i32, i8, i8, ptr, ptr, ptr, %struct.anon, [64 x i8], i8, [64 x i8], i8, i32, i32, ptr, i64, ptr, i64, i8, [64 x i8] }
%struct.ssl3_buffer_st = type { ptr, i16, i16, i16 }
%struct.ssl3_record_st = type { i8, i16, ptr }
%struct.env_md_ctx_st = type { ptr, ptr, ptr, ptr }
%struct.anon = type { [64 x i8], i32, [64 x i8], i32, i64, i32, ptr, i32, i32, %union.anon, %union.anon.0, i8, i32, ptr, ptr, i64, ptr, i8, i8, i8, i8, i32, i8, ptr, i64, i8, ptr, i8, i8, i8, %struct.ssl_ecdh_ctx_st, ptr, i16 }
%union.anon = type { i32 }
%union.anon.0 = type { i16 }
%struct.ssl_ecdh_ctx_st = type { ptr, ptr }

@.str = private unnamed_addr constant [117 x i8] c"generated/home/dtcxzyw/WorkSpace/Projects/compilers/llvm-opt-benchmark/bench/libquic/libquic/boringssl/ssl/ssl_lib.c\00", align 1

; Function Attrs: nounwind uwtable
define hidden i32 @SSL_in_init(ptr noundef %0) #0 {
  %2 = alloca ptr, align 8
  store ptr %0, ptr %2, align 8, !tbaa !80
  %3 = load ptr, ptr %2, align 8, !tbaa !80
  %4 = getelementptr inbounds nuw %struct.ssl_st, ptr %3, i32 0, i32 9
  %5 = load i32, ptr %4, align 4, !tbaa !139
  %6 = and i32 %5, 12288
  %7 = icmp ne i32 %6, 0
  %8 = zext i1 %7 to i32
  ret i32 %8
}

; Function Attrs: nounwind uwtable
define hidden i32 @SSL_shutdown(ptr noundef %0) #0 {
  %2 = alloca i32, align 4
  %3 = alloca ptr, align 8
  %4 = alloca i32, align 4
  %5 = alloca i32, align 4
  store ptr %0, ptr %3, align 8, !tbaa !80
  %6 = load ptr, ptr %3, align 8, !tbaa !80
  %7 = getelementptr inbounds nuw %struct.ssl_st, ptr %6, i32 0, i32 22
  store i32 1, ptr %7, align 8, !tbaa !120
  call void @ERR_clear_error()
  %8 = load ptr, ptr %3, align 8, !tbaa !80
  %9 = getelementptr inbounds nuw %struct.ssl_st, ptr %8, i32 0, i32 7
  %10 = load ptr, ptr %9, align 8, !tbaa !141
  %11 = icmp eq ptr %10, null
  br i1 %11, label %12, label %13

12:                                               ; preds = %1
  call void @ERR_put_error(i32 noundef 16, i32 noundef 0, i32 noundef 226, ptr noundef @.str, i32 noundef 671)
  store i32 -1, ptr %2, align 4
  br label %109

13:                                               ; preds = %1
  %14 = load ptr, ptr %3, align 8, !tbaa !80
  %15 = call i32 @SSL_in_init(ptr noundef %14)
  %16 = icmp ne i32 %15, 0
  br i1 %16, label %17, label %18

17:                                               ; preds = %13
  call void @ERR_put_error(i32 noundef 16, i32 noundef 0, i32 noundef 250, ptr noundef @.str, i32 noundef 677)
  store i32 -1, ptr %2, align 4
  br label %109

18:                                               ; preds = %13
  %19 = load ptr, ptr %3, align 8, !tbaa !80
  %20 = getelementptr inbounds nuw %struct.ssl_st, ptr %19, i32 0, i32 54
  %21 = load i8, ptr %20, align 1
  %22 = lshr i8 %21, 2
  %23 = and i8 %22, 1
  %24 = zext i8 %23 to i32
  %25 = icmp ne i32 %24, 0
  br i1 %25, label %26, label %29

26:                                               ; preds = %18
  %27 = load ptr, ptr %3, align 8, !tbaa !80
  %28 = getelementptr inbounds nuw %struct.ssl_st, ptr %27, i32 0, i32 8
  store i32 3, ptr %28, align 8, !tbaa !138
  store i32 1, ptr %2, align 4
  br label %109

29:                                               ; preds = %18
  %30 = load ptr, ptr %3, align 8, !tbaa !80
  %31 = getelementptr inbounds nuw %struct.ssl_st, ptr %30, i32 0, i32 8
  %32 = load i32, ptr %31, align 8, !tbaa !138
  %33 = and i32 %32, 1
  %34 = icmp ne i32 %33, 0
  br i1 %34, label %50, label %35

35:                                               ; preds = %29
  %36 = load ptr, ptr %3, align 8, !tbaa !80
  %37 = getelementptr inbounds nuw %struct.ssl_st, ptr %36, i32 0, i32 8
  %38 = load i32, ptr %37, align 8, !tbaa !138
  %39 = or i32 %38, 1
  store i32 %39, ptr %37, align 8, !tbaa !138
  %40 = load ptr, ptr %3, align 8, !tbaa !80
  %41 = call i32 @ssl3_send_alert(ptr noundef %40, i32 noundef 1, i32 noundef 0)
  %42 = load ptr, ptr %3, align 8, !tbaa !80
  %43 = getelementptr inbounds nuw %struct.ssl_st, ptr %42, i32 0, i32 14
  %44 = load ptr, ptr %43, align 8, !tbaa !152
  %45 = getelementptr inbounds nuw %struct.ssl3_state_st, ptr %44, i32 0, i32 19
  %46 = load i32, ptr %45, align 4, !tbaa !166
  %47 = icmp ne i32 %46, 0
  br i1 %47, label %48, label %49

48:                                               ; preds = %35
  store i32 -1, ptr %2, align 4
  br label %109

49:                                               ; preds = %35
  br label %95

50:                                               ; preds = %29
  %51 = load ptr, ptr %3, align 8, !tbaa !80
  %52 = getelementptr inbounds nuw %struct.ssl_st, ptr %51, i32 0, i32 14
  %53 = load ptr, ptr %52, align 8, !tbaa !152
  %54 = getelementptr inbounds nuw %struct.ssl3_state_st, ptr %53, i32 0, i32 19
  %55 = load i32, ptr %54, align 4, !tbaa !166
  %56 = icmp ne i32 %55, 0
  br i1 %56, label %57, label %73

57:                                               ; preds = %50
  call void @llvm.lifetime.start.p0(i64 4, ptr %4) #8
  %58 = load ptr, ptr %3, align 8, !tbaa !80
  %59 = getelementptr inbounds nuw %struct.ssl_st, ptr %58, i32 0, i32 3
  %60 = load ptr, ptr %59, align 8, !tbaa !117
  %61 = getelementptr inbounds nuw %struct.ssl_protocol_method_st, ptr %60, i32 0, i32 10
  %62 = load ptr, ptr %61, align 8, !tbaa !167
  %63 = load ptr, ptr %3, align 8, !tbaa !80
  %64 = call i32 %62(ptr noundef %63)
  store i32 %64, ptr %4, align 4, !tbaa !61
  %65 = load i32, ptr %4, align 4, !tbaa !61
  %66 = icmp eq i32 %65, -1
  br i1 %66, label %67, label %69

67:                                               ; preds = %57
  %68 = load i32, ptr %4, align 4, !tbaa !61
  store i32 %68, ptr %2, align 4
  store i32 1, ptr %5, align 4
  br label %70

69:                                               ; preds = %57
  store i32 0, ptr %5, align 4
  br label %70

70:                                               ; preds = %69, %67
  call void @llvm.lifetime.end.p0(i64 4, ptr %4) #8
  %71 = load i32, ptr %5, align 4
  switch i32 %71, label %111 [
    i32 0, label %72
    i32 1, label %109
  ]

72:                                               ; preds = %70
  br label %94

73:                                               ; preds = %50
  %74 = load ptr, ptr %3, align 8, !tbaa !80
  %75 = getelementptr inbounds nuw %struct.ssl_st, ptr %74, i32 0, i32 8
  %76 = load i32, ptr %75, align 8, !tbaa !138
  %77 = and i32 %76, 2
  %78 = icmp ne i32 %77, 0
  br i1 %78, label %93, label %79

79:                                               ; preds = %73
  %80 = load ptr, ptr %3, align 8, !tbaa !80
  %81 = getelementptr inbounds nuw %struct.ssl_st, ptr %80, i32 0, i32 3
  %82 = load ptr, ptr %81, align 8, !tbaa !117
  %83 = getelementptr inbounds nuw %struct.ssl_protocol_method_st, ptr %82, i32 0, i32 8
  %84 = load ptr, ptr %83, align 8, !tbaa !168
  %85 = load ptr, ptr %3, align 8, !tbaa !80
  call void %84(ptr noundef %85)
  %86 = load ptr, ptr %3, align 8, !tbaa !80
  %87 = getelementptr inbounds nuw %struct.ssl_st, ptr %86, i32 0, i32 8
  %88 = load i32, ptr %87, align 8, !tbaa !138
  %89 = and i32 %88, 2
  %90 = icmp ne i32 %89, 0
  br i1 %90, label %92, label %91

91:                                               ; preds = %79
  store i32 -1, ptr %2, align 4
  br label %109

92:                                               ; preds = %79
  br label %93

93:                                               ; preds = %92, %73
  br label %94

94:                                               ; preds = %93, %72
  br label %95

95:                                               ; preds = %94, %49
  %96 = load ptr, ptr %3, align 8, !tbaa !80
  %97 = getelementptr inbounds nuw %struct.ssl_st, ptr %96, i32 0, i32 8
  %98 = load i32, ptr %97, align 8, !tbaa !138
  %99 = icmp eq i32 %98, 3
  br i1 %99, label %100, label %108

100:                                              ; preds = %95
  %101 = load ptr, ptr %3, align 8, !tbaa !80
  %102 = getelementptr inbounds nuw %struct.ssl_st, ptr %101, i32 0, i32 14
  %103 = load ptr, ptr %102, align 8, !tbaa !152
  %104 = getelementptr inbounds nuw %struct.ssl3_state_st, ptr %103, i32 0, i32 19
  %105 = load i32, ptr %104, align 4, !tbaa !166
  %106 = icmp ne i32 %105, 0
  br i1 %106, label %108, label %107

107:                                              ; preds = %100
  store i32 1, ptr %2, align 4
  br label %109

108:                                              ; preds = %100, %95
  store i32 0, ptr %2, align 4
  br label %109

109:                                              ; preds = %108, %107, %91, %70, %48, %26, %17, %12
  %110 = load i32, ptr %2, align 4
  ret i32 %110

111:                                              ; preds = %70
  unreachable
}