; Function Attrs: nounwind uwtable
define hidden range(i32 -1, 2) i32 @SSL_shutdown(ptr noundef initializes((144, 148)) %0) local_unnamed_addr #0 {
  %2 = getelementptr inbounds nuw i8, ptr %0, i64 144
  store i32 1, ptr %2, align 8, !tbaa !109
  tail call void @ERR_clear_error() #21
  %3 = getelementptr inbounds nuw i8, ptr %0, i64 40
  %4 = load ptr, ptr %3, align 8, !tbaa !130
  %5 = icmp eq ptr %4, null
  br i1 %5, label %6, label %7

6:                                                ; preds = %1
  tail call void @ERR_put_error(i32 noundef 16, i32 noundef 0, i32 noundef 226, ptr noundef nonnull @.str, i32 noundef 671) #21
  br label %57

7:                                                ; preds = %1
  %8 = getelementptr inbounds nuw i8, ptr %0, i64 52
  %9 = load i32, ptr %8, align 4, !tbaa !128
  %10 = and i32 %9, 12288
  %.not29 = icmp eq i32 %10, 0
  br i1 %.not29, label %12, label %11

11:                                               ; preds = %7
  tail call void @ERR_put_error(i32 noundef 16, i32 noundef 0, i32 noundef 250, ptr noundef nonnull @.str, i32 noundef 677) #21
  br label %57

12:                                               ; preds = %7
  %13 = getelementptr inbounds nuw i8, ptr %0, i64 385
  %14 = load i8, ptr %13, align 1
  %15 = and i8 %14, 4
  %.not22 = icmp eq i8 %15, 0
  %16 = getelementptr inbounds nuw i8, ptr %0, i64 48
  br i1 %.not22, label %18, label %17

17:                                               ; preds = %12
  store i32 3, ptr %16, align 8, !tbaa !127
  br label %57

18:                                               ; preds = %12
  %19 = load i32, ptr %16, align 8, !tbaa !127
  %20 = and i32 %19, 1
  %.not23 = icmp eq i32 %20, 0
  br i1 %.not23, label %21, label %28

21:                                               ; preds = %18
  %22 = or disjoint i32 %19, 1
  store i32 %22, ptr %16, align 8, !tbaa !127
  %23 = tail call i32 @ssl3_send_alert(ptr noundef nonnull %0, i32 noundef 1, i32 noundef 0) #21
  %24 = getelementptr inbounds nuw i8, ptr %0, i64 80
  %25 = load ptr, ptr %24, align 8, !tbaa !136
  %26 = getelementptr inbounds nuw i8, ptr %25, i64 244
  %27 = load i32, ptr %26, align 4, !tbaa !151
  %.not24 = icmp eq i32 %27, 0
  br i1 %.not24, label %thread-pre-split, label %57

28:                                               ; preds = %18
  %29 = getelementptr inbounds nuw i8, ptr %0, i64 80
  %30 = load ptr, ptr %29, align 8, !tbaa !136
  %31 = getelementptr inbounds nuw i8, ptr %30, i64 244
  %32 = load i32, ptr %31, align 4, !tbaa !151
  %.not25 = icmp eq i32 %32, 0
  br i1 %.not25, label %39, label %33

33:                                               ; preds = %28
  %34 = getelementptr inbounds nuw i8, ptr %0, i64 8
  %35 = load ptr, ptr %34, align 8, !tbaa !106
  %36 = getelementptr inbounds nuw i8, ptr %35, i64 80
  %37 = load ptr, ptr %36, align 8, !tbaa !152
  %38 = tail call i32 %37(ptr noundef nonnull %0) #21
  %.not = icmp eq i32 %38, -1
  br i1 %.not, label %57, label %thread-pre-split

39:                                               ; preds = %28
  %40 = and i32 %19, 2
  %.not26 = icmp eq i32 %40, 0
  br i1 %.not26, label %41, label %thread-pre-split

41:                                               ; preds = %39
  %42 = getelementptr inbounds nuw i8, ptr %0, i64 8
  %43 = load ptr, ptr %42, align 8, !tbaa !106
  %44 = getelementptr inbounds nuw i8, ptr %43, i64 64
  %45 = load ptr, ptr %44, align 8, !tbaa !153
  tail call void %45(ptr noundef nonnull %0) #21
  %46 = load i32, ptr %16, align 8, !tbaa !127
  %47 = and i32 %46, 2
  %.not27 = icmp eq i32 %47, 0
  br i1 %.not27, label %57, label %48

thread-pre-split:                                 ; preds = %21, %39, %33
  %.pr = load i32, ptr %16, align 8, !tbaa !127
  br label %48

48:                                               ; preds = %thread-pre-split, %41
  %49 = phi i32 [ %.pr, %thread-pre-split ], [ %46, %41 ]
  %50 = icmp eq i32 %49, 3
  br i1 %50, label %51, label %56

51:                                               ; preds = %48
  %52 = getelementptr inbounds nuw i8, ptr %0, i64 80
  %53 = load ptr, ptr %52, align 8, !tbaa !136
  %54 = getelementptr inbounds nuw i8, ptr %53, i64 244
  %55 = load i32, ptr %54, align 4, !tbaa !151
  %.not28 = icmp eq i32 %55, 0
  br i1 %.not28, label %57, label %56

56:                                               ; preds = %51, %48
  br label %57

57:                                               ; preds = %33, %51, %41, %21, %56, %17, %11, %6
  %.021 = phi i32 [ -1, %6 ], [ -1, %11 ], [ 1, %17 ], [ -1, %33 ], [ 0, %56 ], [ -1, %21 ], [ -1, %41 ], [ 1, %51 ]
  ret i32 %.021
}